; Function Attrs: mustprogress nounwind uwtable
define internal void @_ZN32pxrInternal_v0_24__pxrReserved__8TfNotice10_DelivererINS_9TfWeakPtrIZL18_TestSdfFpsAndTcpsvE15_ChangeListenerEENS2_INS_8SdfLayerEEEMS3_FvRKNS_9SdfNotice27LayersDidChangeSentPerLayerEES8_ED2Ev(ptr noundef nonnull align 8 dereferenceable(88) %0) unnamed_addr #4 align 2 personality ptr @__gxx_personality_v0 {
  store ptr getelementptr inbounds inrange(-16, 56) (i8, ptr @_ZTVN32pxrInternal_v0_24__pxrReserved__8TfNotice10_DelivererINS_9TfWeakPtrIZL18_TestSdfFpsAndTcpsvE15_ChangeListenerEENS2_INS_8SdfLayerEEEMS3_FvRKNS_9SdfNotice27LayersDidChangeSentPerLayerEES8_EE, i64 16), ptr %0, align 8
  %2 = getelementptr inbounds i8, ptr %0, i64 64
  %3 = load ptr, ptr %2, align 8
  %.not.i.i.i.i = icmp eq ptr %3, null
  br i1 %.not.i.i.i.i, label %_ZN32pxrInternal_v0_24__pxrReserved__9TfWeakPtrINS_8SdfLayerEED2Ev.exit, label %_ZN32pxrInternal_v0_24__pxrReserved__17Tf_RefPtr_Counter9RemoveRefEPKNS_9TfRefBaseE.exit.i.i.i

_ZN32pxrInternal_v0_24__pxrReserved__17Tf_RefPtr_Counter9RemoveRefEPKNS_9TfRefBaseE.exit.i.i.i: ; preds = %1
  %4 = getelementptr inbounds nuw i8, ptr %3, i64 8
  %5 = atomicrmw sub ptr %4, i32 1 release, align 4
  %6 = icmp eq i32 %5, 1
  br i1 %6, label %7, label %_ZN32pxrInternal_v0_24__pxrReserved__9TfWeakPtrINS_8SdfLayerEED2Ev.exit

7:                                                ; preds = %_ZN32pxrInternal_v0_24__pxrReserved__17Tf_RefPtr_Counter9RemoveRefEPKNS_9TfRefBaseE.exit.i.i.i
  %8 = load ptr, ptr %3, align 8
  %9 = getelementptr inbounds i8, ptr %8, i64 8
  %10 = load ptr, ptr %9, align 8
  tail call void %10(ptr noundef nonnull align 8 dereferenceable(12) %3) #23
  br label %_ZN32pxrInternal_v0_24__pxrReserved__9TfWeakPtrINS_8SdfLayerEED2Ev.exit

_ZN32pxrInternal_v0_24__pxrReserved__9TfWeakPtrINS_8SdfLayerEED2Ev.exit: ; preds = %1, %_ZN32pxrInternal_v0_24__pxrReserved__17Tf_RefPtr_Counter9RemoveRefEPKNS_9TfRefBaseE.exit.i.i.i, %7
  %11 = getelementptr inbounds i8, ptr %0, i64 48
  %.val = load ptr, ptr %11, align 8
  %.not.i.i.i.i1 = icmp eq ptr %.val, null
  br i1 %.not.i.i.i.i1, label %_ZN32pxrInternal_v0_24__pxrReserved__9TfWeakPtrIZL18_TestSdfFpsAndTcpsvE15_ChangeListenerED2Ev.exit, label %_ZN32pxrInternal_v0_24__pxrReserved__17Tf_RefPtr_Counter9RemoveRefEPKNS_9TfRefBaseE.exit.i.i.i2

_ZN32pxrInternal_v0_24__pxrReserved__17Tf_RefPtr_Counter9RemoveRefEPKNS_9TfRefBaseE.exit.i.i.i2: ; preds = %_ZN32pxrInternal_v0_24__pxrReserved__9TfWeakPtrINS_8SdfLayerEED2Ev.exit
  %12 = getelementptr inbounds nuw i8, ptr %.val, i64 8
  %13 = atomicrmw sub ptr %12, i32 1 release, align 4
  %14 = icmp eq i32 %13, 1
  br i1 %14, label %15, label %_ZN32pxrInternal_v0_24__pxrReserved__9TfWeakPtrIZL18_TestSdfFpsAndTcpsvE15_ChangeListenerED2Ev.exit

15:                                               ; preds = %_ZN32pxrInternal_v0_24__pxrReserved__17Tf_RefPtr_Counter9RemoveRefEPKNS_9TfRefBaseE.exit.i.i.i2
  %16 = load ptr, ptr %.val, align 8
  %17 = getelementptr inbounds i8, ptr %16, i64 8
  %18 = load ptr, ptr %17, align 8
  tail call void %18(ptr noundef nonnull align 8 dereferenceable(12) %.val) #23
  br label %_ZN32pxrInternal_v0_24__pxrReserved__9TfWeakPtrIZL18_TestSdfFpsAndTcpsvE15_ChangeListenerED2Ev.exit

_ZN32pxrInternal_v0_24__pxrReserved__9TfWeakPtrIZL18_TestSdfFpsAndTcpsvE15_ChangeListenerED2Ev.exit: ; preds = %_ZN32pxrInternal_v0_24__pxrReserved__9TfWeakPtrINS_8SdfLayerEED2Ev.exit, %_ZN32pxrInternal_v0_24__pxrReserved__17Tf_RefPtr_Counter9RemoveRefEPKNS_9TfRefBaseE.exit.i.i.i2, %15
  tail call void @_ZN32pxrInternal_v0_24__pxrReserved__8TfNotice14_DelivererBaseD2Ev(ptr noundef nonnull align 8 dereferenceable(34) %0) #23
  ret void
}